target datalayout = "e-m:e-p270:32:32-p271:32:32-p272:64:64-i64:64-i128:128-f80:128-n8:16:32:64-S128"
target triple = "x86_64-pc-linux-gnu"

%"class.cv::videostab::InpaintingPipeline" = type { %"class.cv::videostab::InpainterBase", %"class.std::vector" }
%"class.cv::videostab::InpainterBase" = type { ptr, i32, i32, ptr, ptr, ptr, ptr }
%"class.std::vector" = type { %"struct.std::_Vector_base" }
%"struct.std::_Vector_base" = type { %"struct.std::_Vector_base<cv::Ptr<cv::videostab::InpainterBase>, std::allocator<cv::Ptr<cv::videostab::InpainterBase>>>::_Vector_impl" }
%"struct.std::_Vector_base<cv::Ptr<cv::videostab::InpainterBase>, std::allocator<cv::Ptr<cv::videostab::InpainterBase>>>::_Vector_impl" = type { %"struct.std::_Vector_base<cv::Ptr<cv::videostab::InpainterBase>, std::allocator<cv::Ptr<cv::videostab::InpainterBase>>>::_Vector_impl_data" }
%"struct.std::_Vector_base<cv::Ptr<cv::videostab::InpainterBase>, std::allocator<cv::Ptr<cv::videostab::InpainterBase>>>::_Vector_impl_data" = type { ptr, ptr, ptr }
%"struct.cv::Ptr" = type { %"class.std::shared_ptr" }
%"class.std::shared_ptr" = type { %"class.std::__shared_ptr" }
%"class.std::__shared_ptr" = type { ptr, %"class.std::__shared_count" }
%"class.std::__shared_count" = type { ptr }
%"class.cv::utils::trace::details::Region" = type <{ ptr, i32, [4 x i8] }>

; Function Attrs: mustprogress nounwind uwtable
define linkonce_odr hidden noundef ptr @_ZNKSt12__shared_ptrIN2cv9videostab13InpainterBaseELN9__gnu_cxx12_Lock_policyE2EE3getEv(ptr noundef nonnull align 8 dereferenceable(16) %0) #6 comdat align 2 {
  %2 = alloca ptr, align 8
  store ptr %0, ptr %2, align 8, !tbaa !301
  %3 = load ptr, ptr %2, align 8
  %4 = getelementptr inbounds nuw %"class.std::__shared_ptr", ptr %3, i32 0, i32 0
  %5 = load ptr, ptr %4, align 8, !tbaa !321
  ret ptr %5
}

; Function Attrs: mustprogress nounwind uwtable
define linkonce_odr hidden noundef ptr @_ZNK2cv3PtrINS_9videostab13InpainterBaseEEptEv(ptr noundef nonnull align 8 dereferenceable(16) %0) #6 comdat align 2 {
  %2 = alloca ptr, align 8
  store ptr %0, ptr %2, align 8, !tbaa !22
  %3 = load ptr, ptr %2, align 8
  %4 = call noundef ptr @_ZNKSt12__shared_ptrIN2cv9videostab13InpainterBaseELN9__gnu_cxx12_Lock_policyE2EE3getEv(ptr noundef nonnull align 8 dereferenceable(16) %3) #3
  ret ptr %4
}

; Function Attrs: mustprogress nounwind uwtable
define linkonce_odr hidden noundef nonnull align 8 dereferenceable(16) ptr @_ZNSt6vectorIN2cv3PtrINS0_9videostab13InpainterBaseEEESaIS4_EEixEm(ptr noundef nonnull align 8 dereferenceable(24) %0, i64 noundef %1) #6 comdat align 2 {
  %3 = alloca ptr, align 8
  %4 = alloca i64, align 8
  store ptr %0, ptr %3, align 8, !tbaa !16
  store i64 %1, ptr %4, align 8, !tbaa !10
  %5 = load ptr, ptr %3, align 8
  %6 = getelementptr inbounds nuw %"struct.std::_Vector_base", ptr %5, i32 0, i32 0
  %7 = getelementptr inbounds nuw %"struct.std::_Vector_base<cv::Ptr<cv::videostab::InpainterBase>, std::allocator<cv::Ptr<cv::videostab::InpainterBase>>>::_Vector_impl_data", ptr %6, i32 0, i32 0
  %8 = load ptr, ptr %7, align 8, !tbaa !21
  %9 = load i64, ptr %4, align 8, !tbaa !10
  %10 = getelementptr inbounds nuw %"struct.cv::Ptr", ptr %8, i64 %9
  ret ptr %10
}

; Function Attrs: mustprogress nounwind uwtable
define linkonce_odr hidden noundef i64 @_ZNKSt6vectorIN2cv3PtrINS0_9videostab13InpainterBaseEEESaIS4_EE4sizeEv(ptr noundef nonnull align 8 dereferenceable(24) %0) #6 comdat align 2 {
  %2 = alloca ptr, align 8
  store ptr %0, ptr %2, align 8, !tbaa !16
  %3 = load ptr, ptr %2, align 8
  %4 = getelementptr inbounds nuw %"struct.std::_Vector_base", ptr %3, i32 0, i32 0
  %5 = getelementptr inbounds nuw %"struct.std::_Vector_base<cv::Ptr<cv::videostab::InpainterBase>, std::allocator<cv::Ptr<cv::videostab::InpainterBase>>>::_Vector_impl_data", ptr %4, i32 0, i32 1
  %6 = load ptr, ptr %5, align 8, !tbaa !18
  %7 = getelementptr inbounds nuw %"struct.std::_Vector_base", ptr %3, i32 0, i32 0
  %8 = getelementptr inbounds nuw %"struct.std::_Vector_base<cv::Ptr<cv::videostab::InpainterBase>, std::allocator<cv::Ptr<cv::videostab::InpainterBase>>>::_Vector_impl_data", ptr %7, i32 0, i32 0
  %9 = load ptr, ptr %8, align 8, !tbaa !21
  %10 = ptrtoint ptr %6 to i64
  %11 = ptrtoint ptr %9 to i64
  %12 = sub i64 %10, %11
  %13 = sdiv exact i64 %12, 16
  ret i64 %13
}

; Function Attrs: mustprogress uwtable
define void @_ZN2cv9videostab18InpaintingPipeline7inpaintEiRNS_3MatES3_(ptr noundef nonnull align 8 dereferenceable(72) %0, i32 noundef %1, ptr noundef nonnull align 8 dereferenceable(96) %2, ptr noundef nonnull align 8 dereferenceable(96) %3) unnamed_addr #4 align 2 personality ptr @__gxx_personality_v0 {
  %5 = alloca ptr, align 8
  %6 = alloca i32, align 4
  %7 = alloca ptr, align 8
  %8 = alloca ptr, align 8
  %9 = alloca %"class.cv::utils::trace::details::Region", align 8
  %10 = alloca i64, align 8
  %11 = alloca ptr, align 8
  %12 = alloca i32, align 4
  store ptr %0, ptr %5, align 8, !tbaa !3
  store i32 %1, ptr %6, align 4, !tbaa !8
  store ptr %2, ptr %7, align 8, !tbaa !41
  store ptr %3, ptr %8, align 8, !tbaa !41
  %13 = load ptr, ptr %5, align 8
  call void @llvm.lifetime.start.p0(i64 16, ptr %9) #3
  call void @_ZN2cv5utils5trace7details6RegionC1ERKNS3_21LocationStaticStorageE(ptr noundef nonnull align 8 dereferenceable(12) %9, ptr noundef nonnull align 8 dereferenceable(32) @_ZZN2cv9videostab18InpaintingPipeline7inpaintEiRNS_3MatES3_E25__cv_trace_location_fn106)
  call void @llvm.lifetime.start.p0(i64 8, ptr %10) #3
  store i64 0, ptr %10, align 8, !tbaa !10
  br label %14

14:                                               ; preds = %32, %4
  %15 = load i64, ptr %10, align 8, !tbaa !10
  %16 = getelementptr inbounds nuw %"class.cv::videostab::InpaintingPipeline", ptr %13, i32 0, i32 1
  %17 = call noundef i64 @_ZNKSt6vectorIN2cv3PtrINS0_9videostab13InpainterBaseEEESaIS4_EE4sizeEv(ptr noundef nonnull align 8 dereferenceable(24) %16) #3
  %18 = icmp ult i64 %15, %17
  br i1 %18, label %20, label %19

19:                                               ; preds = %14
  call void @llvm.lifetime.end.p0(i64 8, ptr %10) #3
  br label %39

20:                                               ; preds = %14
  %21 = getelementptr inbounds nuw %"class.cv::videostab::InpaintingPipeline", ptr %13, i32 0, i32 1
  %22 = load i64, ptr %10, align 8, !tbaa !10
  %23 = call noundef nonnull align 8 dereferenceable(16) ptr @_ZNSt6vectorIN2cv3PtrINS0_9videostab13InpainterBaseEEESaIS4_EEixEm(ptr noundef nonnull align 8 dereferenceable(24) %21, i64 noundef %22) #3
  %24 = call noundef ptr @_ZNK2cv3PtrINS_9videostab13InpainterBaseEEptEv(ptr noundef nonnull align 8 dereferenceable(16) %23) #3
  %25 = load i32, ptr %6, align 4, !tbaa !8
  %26 = load ptr, ptr %7, align 8, !tbaa !41
  %27 = load ptr, ptr %8, align 8, !tbaa !41
  %28 = load ptr, ptr %24, align 8, !tbaa !12
  %29 = getelementptr inbounds ptr, ptr %28, i64 6
  %30 = load ptr, ptr %29, align 8
  invoke void %30(ptr noundef nonnull align 8 dereferenceable(48) %24, i32 noundef %25, ptr noundef nonnull align 8 dereferenceable(96) %26, ptr noundef nonnull align 8 dereferenceable(96) %27)
          to label %31 unwind label %35

31:                                               ; preds = %20
  br label %32

32:                                               ; preds = %31
  %33 = load i64, ptr %10, align 8, !tbaa !10
  %34 = add i64 %33, 1
  store i64 %34, ptr %10, align 8, !tbaa !10
  br label %14, !llvm.loop !43

35:                                               ; preds = %20
  %36 = landingpad { ptr, i32 }
          cleanup
  %37 = extractvalue { ptr, i32 } %36, 0
  store ptr %37, ptr %11, align 8
  %38 = extractvalue { ptr, i32 } %36, 1
  store i32 %38, ptr %12, align 4
  call void @llvm.lifetime.end.p0(i64 8, ptr %10) #3
  call void @_ZN2cv5utils5trace7details6RegionD2Ev(ptr noundef nonnull align 8 dereferenceable(12) %9) #3
  call void @llvm.lifetime.end.p0(i64 16, ptr %9) #3
  br label %40

39:                                               ; preds = %19
  call void @_ZN2cv5utils5trace7details6RegionD2Ev(ptr noundef nonnull align 8 dereferenceable(12) %9) #3
  call void @llvm.lifetime.end.p0(i64 16, ptr %9) #3
  ret void

40:                                               ; preds = %35
  %41 = load ptr, ptr %11, align 8
  %42 = load i32, ptr %12, align 4
  %43 = insertvalue { ptr, i32 } poison, ptr %41, 0
  %44 = insertvalue { ptr, i32 } %43, i32 %42, 1
  resume { ptr, i32 } %44
}