; Function Attrs: mustprogress uwtable
define void @_ZN2cv9videostab18InpaintingPipeline7inpaintEiRNS_3MatES3_(ptr noundef nonnull readonly align 8 captures(none) dereferenceable(72) %0, i32 noundef %1, ptr noundef nonnull align 8 dereferenceable(96) %2, ptr noundef nonnull align 8 dereferenceable(96) %3) unnamed_addr #3 align 2 personality ptr @__gxx_personality_v0 {
  %5 = alloca %"class.cv::utils::trace::details::Region", align 8
  call void @llvm.lifetime.start.p0(i64 16, ptr nonnull %5) #26
  call void @_ZN2cv5utils5trace7details6RegionC1ERKNS3_21LocationStaticStorageE(ptr noundef nonnull align 8 dereferenceable(12) %5, ptr noundef nonnull align 8 dereferenceable(32) @_ZZN2cv9videostab18InpaintingPipeline7inpaintEiRNS_3MatES3_E25__cv_trace_location_fn106)
  %6 = getelementptr inbounds nuw i8, ptr %0, i64 48
  %7 = getelementptr inbounds nuw i8, ptr %0, i64 56
  %8 = load ptr, ptr %7, align 8, !tbaa !3
  %9 = load ptr, ptr %6, align 8, !tbaa !9
  %.not = icmp eq ptr %8, %9
  br i1 %.not, label %._crit_edge, label %.lr.ph

._crit_edge:                                      ; preds = %22, %4
  %10 = getelementptr inbounds nuw i8, ptr %5, i64 8
  %11 = load i32, ptr %10, align 8, !tbaa !34
  %.not.i = icmp eq i32 %11, 0
  br i1 %.not.i, label %_ZN2cv5utils5trace7details6RegionD2Ev.exit, label %12

12:                                               ; preds = %._crit_edge
  invoke void @_ZN2cv5utils5trace7details6Region7destroyEv(ptr noundef nonnull align 8 dereferenceable(12) %5)
          to label %_ZN2cv5utils5trace7details6RegionD2Ev.exit unwind label %13

13:                                               ; preds = %12
  %14 = landingpad { ptr, i32 }
          catch ptr null
  %15 = extractvalue { ptr, i32 } %14, 0
  call void @__clang_call_terminate(ptr %15) #27
  unreachable

_ZN2cv5utils5trace7details6RegionD2Ev.exit:       ; preds = %._crit_edge, %12
  call void @llvm.lifetime.end.p0(i64 16, ptr nonnull %5) #26
  ret void

.lr.ph:                                           ; preds = %4, %22
  %16 = phi ptr [ %25, %22 ], [ %9, %4 ]
  %.08 = phi i64 [ %23, %22 ], [ 0, %4 ]
  %17 = getelementptr inbounds nuw %"struct.cv::Ptr", ptr %16, i64 %.08
  %18 = load ptr, ptr %17, align 8, !tbaa !15
  %19 = load ptr, ptr %18, align 8, !tbaa !20
  %20 = getelementptr inbounds nuw i8, ptr %19, i64 48
  %21 = load ptr, ptr %20, align 8
  invoke void %21(ptr noundef nonnull align 8 dereferenceable(48) %18, i32 noundef %1, ptr noundef nonnull align 8 dereferenceable(96) %2, ptr noundef nonnull align 8 dereferenceable(96) %3)
          to label %22 unwind label %31

22:                                               ; preds = %.lr.ph
  %23 = add nuw i64 %.08, 1
  %24 = load ptr, ptr %7, align 8, !tbaa !3
  %25 = load ptr, ptr %6, align 8, !tbaa !9
  %26 = ptrtoint ptr %24 to i64
  %27 = ptrtoint ptr %25 to i64
  %28 = sub i64 %26, %27
  %29 = ashr exact i64 %28, 4
  %30 = icmp ult i64 %23, %29
  br i1 %30, label %.lr.ph, label %._crit_edge, !llvm.loop !37

31:                                               ; preds = %.lr.ph
  %32 = landingpad { ptr, i32 }
          cleanup
  call void @_ZN2cv5utils5trace7details6RegionD2Ev(ptr noundef nonnull align 8 dereferenceable(12) %5) #26
  call void @llvm.lifetime.end.p0(i64 16, ptr nonnull %5) #26
  resume { ptr, i32 } %32
}